Certificate:
    Data:
        Version: 3 (0x2)
        Serial Number:
            33:e1:af:1d:89:3a:e8:cf:ac:66:29:3c:07:3a:77:8e
    Signature Algorithm: sha256WithRSAEncryption
        Issuer: CN=ca.siat.ac.cn
        Validity
            Not Before: Aug 17 02:09:20 2019 GMT
            Not After : Aug 14 02:09:20 2029 GMT
        Subject: CN=siat-client
        Subject Public Key Info:
            Public Key Algorithm: rsaEncryption
                Public-Key: (2048 bit)
                Modulus:
                    00:b0:d1:b3:5b:b0:dd:9a:ef:08:92:70:52:e2:21:
                    83:6b:4f:76:35:85:64:64:5a:a4:8b:74:d6:56:e6:
                    79:a4:1e:36:ca:be:fc:1d:0c:e1:51:ed:f1:bd:a7:
                    fd:59:51:2c:48:c0:47:fb:a9:d7:81:01:a2:cc:84:
                    75:d3:83:94:a6:39:3f:49:78:d5:8c:ea:de:12:9b:
                    6e:ba:d7:17:e8:2d:33:71:7d:58:7e:5a:df:a2:ba:
                    77:07:1a:0b:1f:6b:6f:8d:7e:2e:b6:6c:26:3a:2a:
                    ea:8f:24:09:34:40:8e:4a:99:4a:ac:74:bd:e9:ca:
                    51:21:ae:b7:f7:e6:11:27:a6:41:80:a0:d5:34:46:
                    f6:32:12:21:be:88:4a:1d:cb:56:67:c5:95:23:98:
                    c4:d4:09:42:0f:a3:a5:14:ee:4b:5e:d3:09:68:8b:
                    51:bf:b2:46:bd:48:f2:61:47:ac:9e:83:74:02:2f:
                    12:cc:e9:5d:03:d5:a5:79:5c:30:c7:07:8e:4b:3d:
                    be:42:f4:31:02:a4:6d:1d:36:40:1f:05:f4:db:6b:
                    07:fc:3b:33:2b:07:2f:a4:a9:b1:b8:04:42:68:5e:
                    a7:fe:fe:af:a9:7a:8d:b0:0c:f6:35:b6:d0:ff:e7:
                    35:71:c7:0d:0f:cf:1e:e6:6d:b2:d4:e7:60:3f:65:
                    5b:73
                Exponent: 65537 (0x10001)
        X509v3 extensions:
            X509v3 Basic Constraints: 
                CA:FALSE
            X509v3 Subject Key Identifier: 
                EC:AA:AB:AB:09:DF:32:B7:98:A0:FE:CA:8E:7A:EC:79:8A:C3:D1:DD
            X509v3 Authority Key Identifier: 
                keyid:90:AD:F7:05:53:00:BE:C7:E2:F4:8A:30:77:B3:10:56:B1:20:E3:30
                DirName:/CN=ca.siat.ac.cn
                serial:C4:FC:41:21:68:8E:9C:21

            X509v3 Extended Key Usage: 
                TLS Web Client Authentication
            X509v3 Key Usage: 
                Digital Signature
    Signature Algorithm: sha256WithRSAEncryption
         06:1b:34:66:4a:ab:de:b4:29:bb:9b:60:c3:54:22:f0:9a:ec:
         26:d9:84:22:67:e7:ff:7f:3f:a9:a0:1b:f1:de:10:9f:65:04:
         51:56:2e:cd:83:14:e6:fb:51:0d:93:26:32:54:8b:03:9d:2e:
         43:9a:b5:e1:5a:16:3f:5a:7f:40:57:a9:03:7e:7d:54:9d:30:
         0a:cd:62:d1:d7:f8:45:b0:34:76:f4:a8:f9:1b:4c:cc:2f:19:
         3b:86:a2:f8:ec:de:cc:67:af:00:96:9e:ab:35:2a:cc:7a:95:
         9f:2a:bd:7f:f9:0b:96:92:99:24:08:f7:50:d0:f4:f2:6c:6c:
         9f:f6:3f:90:3a:17:35:82:41:d0:53:45:a7:32:31:0c:d9:f9:
         8b:60:d0:e5:44:39:94:ac:76:71:3d:27:83:b8:1c:d0:82:d5:
         01:24:9e:5c:e2:9f:c7:64:c1:5c:9a:5b:e0:c7:84:62:c6:0f:
         e7:b1:ca:e7:c2:3c:bd:ca:a0:c0:b2:01:13:9b:69:23:3b:1b:
         7e:55:47:8a:6d:71:67:47:84:ca:14:29:4d:54:36:a6:a9:ba:
         53:a4:86:94:06:17:35:fa:5c:d8:6e:00:61:06:27:7d:af:8d:
         4e:01:e5:13:1c:7b:fa:0f:4d:72:b9:8f:71:ed:6a:4b:93:16:
         d1:6e:97:78
-----BEGIN CERTIFICATE-----
MIIDUjCCAjqgAwIBAgIQM+GvHYk66M+sZik8Bzp3jjANBgkqhkiG9w0BAQsFADAY
MRYwFAYDVQQDDA1jYS5zaWF0LmFjLmNuMB4XDTE5MDgxNzAyMDkyMFoXDTI5MDgx
NDAyMDkyMFowFjEUMBIGA1UEAwwLc2lhdC1jbGllbnQwggEiMA0GCSqGSIb3DQEB
AQUAA4IBDwAwggEKAoIBAQCw0bNbsN2a7wiScFLiIYNrT3Y1hWRkWqSLdNZW5nmk
HjbKvvwdDOFR7fG9p/1ZUSxIwEf7qdeBAaLMhHXTg5SmOT9JeNWM6t4Sm2661xfo
LTNxfVh+Wt+iuncHGgsfa2+Nfi62bCY6KuqPJAk0QI5KmUqsdL3pylEhrrf35hEn
pkGAoNU0RvYyEiG+iEody1ZnxZUjmMTUCUIPo6UU7kte0wloi1G/ska9SPJhR6ye
g3QCLxLM6V0D1aV5XDDHB45LPb5C9DECpG0dNkAfBfTbawf8OzMrBy+kqbG4BEJo
Xqf+/q+peo2wDPY1ttD/5zVxxw0Pzx7mbbLU52A/ZVtzAgMBAAGjgZkwgZYwCQYD
VR0TBAIwADAdBgNVHQ4EFgQU7KqrqwnfMreYoP7KjnrseYrD0d0wSAYDVR0jBEEw
P4AUkK33BVMAvsfi9Iowd7MQVrEg4zChHKQaMBgxFjAUBgNVBAMMDWNhLnNpYXQu
YWMuY26CCQDE/EEhaI6cITATBgNVHSUEDDAKBggrBgEFBQcDAjALBgNVHQ8EBAMC
B4AwDQYJKoZIhvcNAQELBQADggEBAAYbNGZKq960KbubYMNUIvCa7CbZhCJn5/9/
P6mgG/HeEJ9lBFFWLs2DFOb7UQ2TJjJUiwOdLkOateFaFj9af0BXqQN+fVSdMArN
YtHX+EWwNHb0qPkbTMwvGTuGovjs3sxnrwCWnqs1Ksx6lZ8qvX/5C5aSmSQI91DQ
9PJsbJ/2P5A6FzWCQdBTRacyMQzZ+Ytg0OVEOZSsdnE9J4O4HNCC1QEknlzin8dk
wVyaW+DHhGLGD+exyufCPL3KoMCyARObaSM7G35VR4ptcWdHhMoUKU1UNqapulOk
hpQGFzX6XNhuAGEGJ32vjU4B5RMce/oPTXK5j3HtakuTFtFul3g=
-----END CERTIFICATE-----
